target datalayout = "e-m:e-p270:32:32-p271:32:32-p272:64:64-i64:64-i128:128-f80:128-n8:16:32:64-S128"
target triple = "x86_64-pc-linux-gnu"

%"class.sat::bcd" = type { ptr, %class.ptr_vector, %class.svector, %class.svector, %class.svector, %class.svector, %class.ptr_vector, %class.svector.1, %class.svector.3, %class.svector.3 }
%class.svector = type { %class.vector.0 }
%class.vector.0 = type { ptr }
%class.ptr_vector = type { %class.vector }
%class.vector = type { ptr }
%class.svector.1 = type { %class.vector.2 }
%class.vector.2 = type { ptr }
%class.svector.3 = type { %class.vector.4 }
%class.vector.4 = type { ptr }

; Function Attrs: mustprogress nounwind uwtable
define linkonce_odr hidden void @_ZN6vectorIN3sat3bcd7bclauseELb0EjE5resetEv(ptr noundef nonnull align 8 dereferenceable(8) %0) #4 comdat align 2 {
  %2 = alloca ptr, align 8
  store ptr %0, ptr %2, align 8, !tbaa !39
  %3 = load ptr, ptr %2, align 8
  %4 = getelementptr inbounds nuw %class.vector.0, ptr %3, i32 0, i32 0
  %5 = load ptr, ptr %4, align 8, !tbaa !69
  %6 = icmp ne ptr %5, null
  br i1 %6, label %7, label %11

7:                                                ; preds = %1
  %8 = getelementptr inbounds nuw %class.vector.0, ptr %3, i32 0, i32 0
  %9 = load ptr, ptr %8, align 8, !tbaa !69
  %10 = getelementptr inbounds i32, ptr %9, i64 -1
  store i32 0, ptr %10, align 4, !tbaa !51
  br label %11

11:                                               ; preds = %7, %1
  ret void
}

; Function Attrs: mustprogress nounwind uwtable
define linkonce_odr hidden void @_ZN6vectorIPN3sat6clauseELb0EjE5resetEv(ptr noundef nonnull align 8 dereferenceable(8) %0) #4 comdat align 2 {
  %2 = alloca ptr, align 8
  store ptr %0, ptr %2, align 8, !tbaa !37
  %3 = load ptr, ptr %2, align 8
  %4 = getelementptr inbounds nuw %class.vector, ptr %3, i32 0, i32 0
  %5 = load ptr, ptr %4, align 8, !tbaa !81
  %6 = icmp ne ptr %5, null
  br i1 %6, label %7, label %11

7:                                                ; preds = %1
  %8 = getelementptr inbounds nuw %class.vector, ptr %3, i32 0, i32 0
  %9 = load ptr, ptr %8, align 8, !tbaa !81
  %10 = getelementptr inbounds i32, ptr %9, i64 -1
  store i32 0, ptr %10, align 4, !tbaa !51
  br label %11

11:                                               ; preds = %7, %1
  ret void
}

; Function Attrs: mustprogress uwtable
define hidden void @_ZN3sat3bcd7cleanupEv(ptr noundef nonnull align 8 dereferenceable(80) %0) #5 align 2 {
  %2 = alloca ptr, align 8
  store ptr %0, ptr %2, align 8, !tbaa !3
  %3 = load ptr, ptr %2, align 8
  %4 = getelementptr inbounds nuw %"class.sat::bcd", ptr %3, i32 0, i32 0
  %5 = load ptr, ptr %4, align 8, !tbaa !18
  %6 = getelementptr inbounds nuw %"class.sat::bcd", ptr %3, i32 0, i32 6
  call void @_ZN3sat6solver11del_clausesER10ptr_vectorINS_6clauseEE(ptr noundef nonnull align 8 dereferenceable(4264) %5, ptr noundef nonnull align 8 dereferenceable(8) %6)
  %7 = getelementptr inbounds nuw %"class.sat::bcd", ptr %3, i32 0, i32 6
  call void @_ZN6vectorIPN3sat6clauseELb0EjE5resetEv(ptr noundef nonnull align 8 dereferenceable(8) %7)
  %8 = getelementptr inbounds nuw %"class.sat::bcd", ptr %3, i32 0, i32 1
  call void @_ZN6vectorIPN3sat6clauseELb0EjE5resetEv(ptr noundef nonnull align 8 dereferenceable(8) %8)
  %9 = getelementptr inbounds nuw %"class.sat::bcd", ptr %3, i32 0, i32 2
  call void @_ZN6vectorIN3sat3bcd7bclauseELb0EjE5resetEv(ptr noundef nonnull align 8 dereferenceable(8) %9)
  %10 = getelementptr inbounds nuw %"class.sat::bcd", ptr %3, i32 0, i32 3
  call void @_ZN6vectorIN3sat3bcd7bclauseELb0EjE5resetEv(ptr noundef nonnull align 8 dereferenceable(8) %10)
  ret void
}