; Function Attrs: mustprogress uwtable
define hidden void @_ZN3sat3bcd7cleanupEv(ptr noundef nonnull align 8 dereferenceable(80) %0) local_unnamed_addr #5 align 2 {
  %2 = load ptr, ptr %0, align 8, !tbaa !8
  %3 = getelementptr inbounds nuw i8, ptr %0, i64 48
  tail call void @_ZN3sat6solver11del_clausesER10ptr_vectorINS_6clauseEE(ptr noundef nonnull align 8 dereferenceable(4264) %2, ptr noundef nonnull align 8 dereferenceable(8) %3)
  %4 = load ptr, ptr %3, align 8, !tbaa !23
  %.not.i = icmp eq ptr %4, null
  br i1 %.not.i, label %_ZN6vectorIPN3sat6clauseELb0EjE5resetEv.exit, label %5

5:                                                ; preds = %1
  %6 = getelementptr inbounds i8, ptr %4, i64 -4
  store i32 0, ptr %6, align 4, !tbaa !24
  br label %_ZN6vectorIPN3sat6clauseELb0EjE5resetEv.exit

_ZN6vectorIPN3sat6clauseELb0EjE5resetEv.exit:     ; preds = %1, %5
  %7 = getelementptr inbounds nuw i8, ptr %0, i64 8
  %8 = load ptr, ptr %7, align 8, !tbaa !23
  %.not.i1 = icmp eq ptr %8, null
  br i1 %.not.i1, label %_ZN6vectorIPN3sat6clauseELb0EjE5resetEv.exit2, label %9

9:                                                ; preds = %_ZN6vectorIPN3sat6clauseELb0EjE5resetEv.exit
  %10 = getelementptr inbounds i8, ptr %8, i64 -4
  store i32 0, ptr %10, align 4, !tbaa !24
  br label %_ZN6vectorIPN3sat6clauseELb0EjE5resetEv.exit2

_ZN6vectorIPN3sat6clauseELb0EjE5resetEv.exit2:    ; preds = %_ZN6vectorIPN3sat6clauseELb0EjE5resetEv.exit, %9
  %11 = getelementptr inbounds nuw i8, ptr %0, i64 16
  %12 = load ptr, ptr %11, align 8, !tbaa !26
  %.not.i3 = icmp eq ptr %12, null
  br i1 %.not.i3, label %_ZN6vectorIN3sat3bcd7bclauseELb0EjE5resetEv.exit, label %13

13:                                               ; preds = %_ZN6vectorIPN3sat6clauseELb0EjE5resetEv.exit2
  %14 = getelementptr inbounds i8, ptr %12, i64 -4
  store i32 0, ptr %14, align 4, !tbaa !24
  br label %_ZN6vectorIN3sat3bcd7bclauseELb0EjE5resetEv.exit

_ZN6vectorIN3sat3bcd7bclauseELb0EjE5resetEv.exit: ; preds = %_ZN6vectorIPN3sat6clauseELb0EjE5resetEv.exit2, %13
  %15 = getelementptr inbounds nuw i8, ptr %0, i64 24
  %16 = load ptr, ptr %15, align 8, !tbaa !26
  %.not.i4 = icmp eq ptr %16, null
  br i1 %.not.i4, label %_ZN6vectorIN3sat3bcd7bclauseELb0EjE5resetEv.exit5, label %17

17:                                               ; preds = %_ZN6vectorIN3sat3bcd7bclauseELb0EjE5resetEv.exit
  %18 = getelementptr inbounds i8, ptr %16, i64 -4
  store i32 0, ptr %18, align 4, !tbaa !24
  br label %_ZN6vectorIN3sat3bcd7bclauseELb0EjE5resetEv.exit5

_ZN6vectorIN3sat3bcd7bclauseELb0EjE5resetEv.exit5: ; preds = %_ZN6vectorIN3sat3bcd7bclauseELb0EjE5resetEv.exit, %17
  ret void
}